target datalayout = "e-m:e-p270:32:32-p271:32:32-p272:64:64-i64:64-i128:128-f80:128-n8:16:32:64-S128"
target triple = "x86_64-pc-linux-gnu"

%struct.rc2_key_st = type { [64 x i16] }

; Function Attrs: nounwind uwtable
define internal void @RC2_encrypt(ptr noundef %0, ptr noundef %1) #0 {
  %3 = alloca ptr, align 8
  %4 = alloca ptr, align 8
  %5 = alloca i32, align 4
  %6 = alloca i32, align 4
  %7 = alloca ptr, align 8
  %8 = alloca ptr, align 8
  %9 = alloca i16, align 2
  %10 = alloca i16, align 2
  %11 = alloca i16, align 2
  %12 = alloca i16, align 2
  %13 = alloca i16, align 2
  %14 = alloca i32, align 4
  store ptr %0, ptr %3, align 8, !tbaa !40
  store ptr %1, ptr %4, align 8, !tbaa !27
  call void @llvm.lifetime.start.p0(i64 4, ptr %5) #3
  call void @llvm.lifetime.start.p0(i64 4, ptr %6) #3
  call void @llvm.lifetime.start.p0(i64 8, ptr %7) #3
  call void @llvm.lifetime.start.p0(i64 8, ptr %8) #3
  call void @llvm.lifetime.start.p0(i64 2, ptr %9) #3
  call void @llvm.lifetime.start.p0(i64 2, ptr %10) #3
  call void @llvm.lifetime.start.p0(i64 2, ptr %11) #3
  call void @llvm.lifetime.start.p0(i64 2, ptr %12) #3
  call void @llvm.lifetime.start.p0(i64 2, ptr %13) #3
  call void @llvm.lifetime.start.p0(i64 4, ptr %14) #3
  %15 = load ptr, ptr %3, align 8, !tbaa !40
  %16 = getelementptr inbounds i32, ptr %15, i64 0
  %17 = load i32, ptr %16, align 4, !tbaa !13
  store i32 %17, ptr %14, align 4, !tbaa !13
  %18 = load i32, ptr %14, align 4, !tbaa !13
  %19 = trunc i32 %18 to i16
  %20 = zext i16 %19 to i32
  %21 = and i32 %20, 65535
  %22 = trunc i32 %21 to i16
  store i16 %22, ptr %9, align 2, !tbaa !35
  %23 = load i32, ptr %14, align 4, !tbaa !13
  %24 = lshr i32 %23, 16
  %25 = trunc i32 %24 to i16
  store i16 %25, ptr %10, align 2, !tbaa !35
  %26 = load ptr, ptr %3, align 8, !tbaa !40
  %27 = getelementptr inbounds i32, ptr %26, i64 1
  %28 = load i32, ptr %27, align 4, !tbaa !13
  store i32 %28, ptr %14, align 4, !tbaa !13
  %29 = load i32, ptr %14, align 4, !tbaa !13
  %30 = trunc i32 %29 to i16
  %31 = zext i16 %30 to i32
  %32 = and i32 %31, 65535
  %33 = trunc i32 %32 to i16
  store i16 %33, ptr %11, align 2, !tbaa !35
  %34 = load i32, ptr %14, align 4, !tbaa !13
  %35 = lshr i32 %34, 16
  %36 = trunc i32 %35 to i16
  store i16 %36, ptr %12, align 2, !tbaa !35
  store i32 3, ptr %6, align 4, !tbaa !13
  store i32 5, ptr %5, align 4, !tbaa !13
  %37 = load ptr, ptr %4, align 8, !tbaa !27
  %38 = getelementptr inbounds nuw %struct.rc2_key_st, ptr %37, i32 0, i32 0
  %39 = getelementptr inbounds [64 x i16], ptr %38, i64 0, i64 0
  store ptr %39, ptr %8, align 8, !tbaa !33
  store ptr %39, ptr %7, align 8, !tbaa !33
  br label %40

40:                                               ; preds = %221, %2
  %41 = load i16, ptr %9, align 2, !tbaa !35
  %42 = zext i16 %41 to i32
  %43 = load i16, ptr %10, align 2, !tbaa !35
  %44 = zext i16 %43 to i32
  %45 = load i16, ptr %12, align 2, !tbaa !35
  %46 = zext i16 %45 to i32
  %47 = xor i32 %46, -1
  %48 = and i32 %44, %47
  %49 = add nsw i32 %42, %48
  %50 = load i16, ptr %11, align 2, !tbaa !35
  %51 = zext i16 %50 to i32
  %52 = load i16, ptr %12, align 2, !tbaa !35
  %53 = zext i16 %52 to i32
  %54 = and i32 %51, %53
  %55 = add nsw i32 %49, %54
  %56 = load ptr, ptr %7, align 8, !tbaa !33
  %57 = getelementptr inbounds nuw i16, ptr %56, i32 1
  store ptr %57, ptr %7, align 8, !tbaa !33
  %58 = load i16, ptr %56, align 2, !tbaa !35
  %59 = zext i16 %58 to i32
  %60 = add nsw i32 %55, %59
  %61 = and i32 %60, 65535
  %62 = trunc i32 %61 to i16
  store i16 %62, ptr %13, align 2, !tbaa !35
  %63 = load i16, ptr %13, align 2, !tbaa !35
  %64 = zext i16 %63 to i32
  %65 = shl i32 %64, 1
  %66 = load i16, ptr %13, align 2, !tbaa !35
  %67 = zext i16 %66 to i32
  %68 = ashr i32 %67, 15
  %69 = or i32 %65, %68
  %70 = trunc i32 %69 to i16
  store i16 %70, ptr %9, align 2, !tbaa !35
  %71 = load i16, ptr %10, align 2, !tbaa !35
  %72 = zext i16 %71 to i32
  %73 = load i16, ptr %11, align 2, !tbaa !35
  %74 = zext i16 %73 to i32
  %75 = load i16, ptr %9, align 2, !tbaa !35
  %76 = zext i16 %75 to i32
  %77 = xor i32 %76, -1
  %78 = and i32 %74, %77
  %79 = add nsw i32 %72, %78
  %80 = load i16, ptr %12, align 2, !tbaa !35
  %81 = zext i16 %80 to i32
  %82 = load i16, ptr %9, align 2, !tbaa !35
  %83 = zext i16 %82 to i32
  %84 = and i32 %81, %83
  %85 = add nsw i32 %79, %84
  %86 = load ptr, ptr %7, align 8, !tbaa !33
  %87 = getelementptr inbounds nuw i16, ptr %86, i32 1
  store ptr %87, ptr %7, align 8, !tbaa !33
  %88 = load i16, ptr %86, align 2, !tbaa !35
  %89 = zext i16 %88 to i32
  %90 = add nsw i32 %85, %89
  %91 = and i32 %90, 65535
  %92 = trunc i32 %91 to i16
  store i16 %92, ptr %13, align 2, !tbaa !35
  %93 = load i16, ptr %13, align 2, !tbaa !35
  %94 = zext i16 %93 to i32
  %95 = shl i32 %94, 2
  %96 = load i16, ptr %13, align 2, !tbaa !35
  %97 = zext i16 %96 to i32
  %98 = ashr i32 %97, 14
  %99 = or i32 %95, %98
  %100 = trunc i32 %99 to i16
  store i16 %100, ptr %10, align 2, !tbaa !35
  %101 = load i16, ptr %11, align 2, !tbaa !35
  %102 = zext i16 %101 to i32
  %103 = load i16, ptr %12, align 2, !tbaa !35
  %104 = zext i16 %103 to i32
  %105 = load i16, ptr %10, align 2, !tbaa !35
  %106 = zext i16 %105 to i32
  %107 = xor i32 %106, -1
  %108 = and i32 %104, %107
  %109 = add nsw i32 %102, %108
  %110 = load i16, ptr %9, align 2, !tbaa !35
  %111 = zext i16 %110 to i32
  %112 = load i16, ptr %10, align 2, !tbaa !35
  %113 = zext i16 %112 to i32
  %114 = and i32 %111, %113
  %115 = add nsw i32 %109, %114
  %116 = load ptr, ptr %7, align 8, !tbaa !33
  %117 = getelementptr inbounds nuw i16, ptr %116, i32 1
  store ptr %117, ptr %7, align 8, !tbaa !33
  %118 = load i16, ptr %116, align 2, !tbaa !35
  %119 = zext i16 %118 to i32
  %120 = add nsw i32 %115, %119
  %121 = and i32 %120, 65535
  %122 = trunc i32 %121 to i16
  store i16 %122, ptr %13, align 2, !tbaa !35
  %123 = load i16, ptr %13, align 2, !tbaa !35
  %124 = zext i16 %123 to i32
  %125 = shl i32 %124, 3
  %126 = load i16, ptr %13, align 2, !tbaa !35
  %127 = zext i16 %126 to i32
  %128 = ashr i32 %127, 13
  %129 = or i32 %125, %128
  %130 = trunc i32 %129 to i16
  store i16 %130, ptr %11, align 2, !tbaa !35
  %131 = load i16, ptr %12, align 2, !tbaa !35
  %132 = zext i16 %131 to i32
  %133 = load i16, ptr %9, align 2, !tbaa !35
  %134 = zext i16 %133 to i32
  %135 = load i16, ptr %11, align 2, !tbaa !35
  %136 = zext i16 %135 to i32
  %137 = xor i32 %136, -1
  %138 = and i32 %134, %137
  %139 = add nsw i32 %132, %138
  %140 = load i16, ptr %10, align 2, !tbaa !35
  %141 = zext i16 %140 to i32
  %142 = load i16, ptr %11, align 2, !tbaa !35
  %143 = zext i16 %142 to i32
  %144 = and i32 %141, %143
  %145 = add nsw i32 %139, %144
  %146 = load ptr, ptr %7, align 8, !tbaa !33
  %147 = getelementptr inbounds nuw i16, ptr %146, i32 1
  store ptr %147, ptr %7, align 8, !tbaa !33
  %148 = load i16, ptr %146, align 2, !tbaa !35
  %149 = zext i16 %148 to i32
  %150 = add nsw i32 %145, %149
  %151 = and i32 %150, 65535
  %152 = trunc i32 %151 to i16
  store i16 %152, ptr %13, align 2, !tbaa !35
  %153 = load i16, ptr %13, align 2, !tbaa !35
  %154 = zext i16 %153 to i32
  %155 = shl i32 %154, 5
  %156 = load i16, ptr %13, align 2, !tbaa !35
  %157 = zext i16 %156 to i32
  %158 = ashr i32 %157, 11
  %159 = or i32 %155, %158
  %160 = trunc i32 %159 to i16
  store i16 %160, ptr %12, align 2, !tbaa !35
  %161 = load i32, ptr %5, align 4, !tbaa !13
  %162 = add nsw i32 %161, -1
  store i32 %162, ptr %5, align 4, !tbaa !13
  %163 = icmp eq i32 %162, 0
  br i1 %163, label %164, label %221

164:                                              ; preds = %40
  %165 = load i32, ptr %6, align 4, !tbaa !13
  %166 = add nsw i32 %165, -1
  store i32 %166, ptr %6, align 4, !tbaa !13
  %167 = icmp eq i32 %166, 0
  br i1 %167, label %168, label %169

168:                                              ; preds = %164
  br label %222

169:                                              ; preds = %164
  %170 = load i32, ptr %6, align 4, !tbaa !13
  %171 = icmp eq i32 %170, 2
  %172 = select i1 %171, i32 6, i32 5
  store i32 %172, ptr %5, align 4, !tbaa !13
  %173 = load ptr, ptr %8, align 8, !tbaa !33
  %174 = load i16, ptr %12, align 2, !tbaa !35
  %175 = zext i16 %174 to i32
  %176 = and i32 %175, 63
  %177 = sext i32 %176 to i64
  %178 = getelementptr inbounds i16, ptr %173, i64 %177
  %179 = load i16, ptr %178, align 2, !tbaa !35
  %180 = zext i16 %179 to i32
  %181 = load i16, ptr %9, align 2, !tbaa !35
  %182 = zext i16 %181 to i32
  %183 = add nsw i32 %182, %180
  %184 = trunc i32 %183 to i16
  store i16 %184, ptr %9, align 2, !tbaa !35
  %185 = load ptr, ptr %8, align 8, !tbaa !33
  %186 = load i16, ptr %9, align 2, !tbaa !35
  %187 = zext i16 %186 to i32
  %188 = and i32 %187, 63
  %189 = sext i32 %188 to i64
  %190 = getelementptr inbounds i16, ptr %185, i64 %189
  %191 = load i16, ptr %190, align 2, !tbaa !35
  %192 = zext i16 %191 to i32
  %193 = load i16, ptr %10, align 2, !tbaa !35
  %194 = zext i16 %193 to i32
  %195 = add nsw i32 %194, %192
  %196 = trunc i32 %195 to i16
  store i16 %196, ptr %10, align 2, !tbaa !35
  %197 = load ptr, ptr %8, align 8, !tbaa !33
  %198 = load i16, ptr %10, align 2, !tbaa !35
  %199 = zext i16 %198 to i32
  %200 = and i32 %199, 63
  %201 = sext i32 %200 to i64
  %202 = getelementptr inbounds i16, ptr %197, i64 %201
  %203 = load i16, ptr %202, align 2, !tbaa !35
  %204 = zext i16 %203 to i32
  %205 = load i16, ptr %11, align 2, !tbaa !35
  %206 = zext i16 %205 to i32
  %207 = add nsw i32 %206, %204
  %208 = trunc i32 %207 to i16
  store i16 %208, ptr %11, align 2, !tbaa !35
  %209 = load ptr, ptr %8, align 8, !tbaa !33
  %210 = load i16, ptr %11, align 2, !tbaa !35
  %211 = zext i16 %210 to i32
  %212 = and i32 %211, 63
  %213 = sext i32 %212 to i64
  %214 = getelementptr inbounds i16, ptr %209, i64 %213
  %215 = load i16, ptr %214, align 2, !tbaa !35
  %216 = zext i16 %215 to i32
  %217 = load i16, ptr %12, align 2, !tbaa !35
  %218 = zext i16 %217 to i32
  %219 = add nsw i32 %218, %216
  %220 = trunc i32 %219 to i16
  store i16 %220, ptr %12, align 2, !tbaa !35
  br label %221

221:                                              ; preds = %169, %40
  br label %40

222:                                              ; preds = %168
  %223 = load i16, ptr %9, align 2, !tbaa !35
  %224 = zext i16 %223 to i32
  %225 = and i32 %224, 65535
  %226 = load i16, ptr %10, align 2, !tbaa !35
  %227 = zext i16 %226 to i32
  %228 = and i32 %227, 65535
  %229 = shl i32 %228, 16
  %230 = or i32 %225, %229
  %231 = load ptr, ptr %3, align 8, !tbaa !40
  %232 = getelementptr inbounds i32, ptr %231, i64 0
  store i32 %230, ptr %232, align 4, !tbaa !13
  %233 = load i16, ptr %11, align 2, !tbaa !35
  %234 = zext i16 %233 to i32
  %235 = and i32 %234, 65535
  %236 = load i16, ptr %12, align 2, !tbaa !35
  %237 = zext i16 %236 to i32
  %238 = and i32 %237, 65535
  %239 = shl i32 %238, 16
  %240 = or i32 %235, %239
  %241 = load ptr, ptr %3, align 8, !tbaa !40
  %242 = getelementptr inbounds i32, ptr %241, i64 1
  store i32 %240, ptr %242, align 4, !tbaa !13
  call void @llvm.lifetime.end.p0(i64 4, ptr %14) #3
  call void @llvm.lifetime.end.p0(i64 2, ptr %13) #3
  call void @llvm.lifetime.end.p0(i64 2, ptr %12) #3
  call void @llvm.lifetime.end.p0(i64 2, ptr %11) #3
  call void @llvm.lifetime.end.p0(i64 2, ptr %10) #3
  call void @llvm.lifetime.end.p0(i64 2, ptr %9) #3
  call void @llvm.lifetime.end.p0(i64 8, ptr %8) #3
  call void @llvm.lifetime.end.p0(i64 8, ptr %7) #3
  call void @llvm.lifetime.end.p0(i64 4, ptr %6) #3
  call void @llvm.lifetime.end.p0(i64 4, ptr %5) #3
  ret void
}