; Function Attrs: nofree norecurse nosync nounwind memory(argmem: readwrite) uwtable
define internal fastcc void @RC2_encrypt(ptr noundef nonnull captures(none) %0, ptr noundef readonly captures(none) %1) unnamed_addr #5 {
  %3 = load i32, ptr %0, align 4, !tbaa !26
  %4 = lshr i32 %3, 16
  %5 = getelementptr inbounds nuw i8, ptr %0, i64 4
  %6 = load i32, ptr %5, align 4, !tbaa !26
  %7 = lshr i32 %6, 16
  br label %.outer

.outer:                                           ; preds = %61, %2
  %.069.ph = phi ptr [ %47, %61 ], [ %1, %2 ]
  %.067.ph = phi i32 [ %69, %61 ], [ %3, %2 ]
  %.065.ph = phi i32 [ %75, %61 ], [ %4, %2 ]
  %.063.ph = phi i32 [ %81, %61 ], [ %6, %2 ]
  %.061.ph = phi i32 [ %87, %61 ], [ %7, %2 ]
  %.059.ph = phi i32 [ %59, %61 ], [ 3, %2 ]
  %.0.ph = phi i32 [ %63, %61 ], [ 5, %2 ]
  br label %8

8:                                                ; preds = %.outer, %8
  %.069 = phi ptr [ %47, %8 ], [ %.069.ph, %.outer ]
  %.067 = phi i32 [ %19, %8 ], [ %.067.ph, %.outer ]
  %.065 = phi i32 [ %30, %8 ], [ %.065.ph, %.outer ]
  %.063 = phi i32 [ %41, %8 ], [ %.063.ph, %.outer ]
  %.061 = phi i32 [ %52, %8 ], [ %.061.ph, %.outer ]
  %.0 = phi i32 [ %53, %8 ], [ %.0.ph, %.outer ]
  %9 = xor i32 %.061, -1
  %10 = and i32 %.065, %9
  %11 = add i32 %10, %.067
  %12 = and i32 %.061, %.063
  %13 = add i32 %11, %12
  %14 = getelementptr inbounds nuw i8, ptr %.069, i64 2
  %15 = load i16, ptr %.069, align 2, !tbaa !21
  %.tr = trunc i32 %13 to i16
  %.narrow = add i16 %15, %.tr
  %16 = zext i16 %.narrow to i32
  %17 = shl nuw nsw i32 %16, 1
  %18 = lshr i32 %16, 15
  %19 = or disjoint i32 %17, %18
  %20 = xor i32 %19, -1
  %21 = and i32 %.063, %20
  %22 = add i32 %21, %.065
  %23 = and i32 %19, %.061
  %24 = add i32 %22, %23
  %25 = getelementptr inbounds nuw i8, ptr %.069, i64 4
  %26 = load i16, ptr %14, align 2, !tbaa !21
  %.tr72 = trunc i32 %24 to i16
  %.narrow73 = add i16 %26, %.tr72
  %27 = zext i16 %.narrow73 to i32
  %28 = shl nuw nsw i32 %27, 2
  %29 = lshr i32 %27, 14
  %30 = or disjoint i32 %28, %29
  %31 = xor i32 %30, -1
  %32 = and i32 %.061, %31
  %33 = add i32 %32, %.063
  %34 = and i32 %30, %19
  %35 = add i32 %33, %34
  %36 = getelementptr inbounds nuw i8, ptr %.069, i64 6
  %37 = load i16, ptr %25, align 2, !tbaa !21
  %.tr74 = trunc i32 %35 to i16
  %.narrow75 = add i16 %37, %.tr74
  %38 = zext i16 %.narrow75 to i32
  %39 = shl nuw nsw i32 %38, 3
  %40 = lshr i32 %38, 13
  %41 = or disjoint i32 %39, %40
  %42 = xor i32 %41, -1
  %43 = and i32 %19, %42
  %44 = add nsw i32 %43, %.061
  %45 = and i32 %41, %30
  %46 = add nsw i32 %44, %45
  %47 = getelementptr inbounds nuw i8, ptr %.069, i64 8
  %48 = load i16, ptr %36, align 2, !tbaa !21
  %.tr76 = trunc i32 %46 to i16
  %.narrow77 = add i16 %48, %.tr76
  %49 = zext i16 %.narrow77 to i32
  %50 = shl nuw nsw i32 %49, 5
  %51 = lshr i32 %49, 11
  %52 = or disjoint i32 %50, %51
  %53 = add nsw i32 %.0, -1
  %54 = icmp eq i32 %53, 0
  br i1 %54, label %55, label %8

55:                                               ; preds = %8
  %56 = and i32 %19, 65535
  %57 = and i32 %30, 65535
  %58 = and i32 %41, 65535
  %59 = add nsw i32 %.059.ph, -1
  %60 = icmp eq i32 %59, 0
  br i1 %60, label %88, label %61

61:                                               ; preds = %55
  %62 = icmp eq i32 %59, 2
  %63 = select i1 %62, i32 6, i32 5
  %64 = and i32 %52, 63
  %65 = zext nneg i32 %64 to i64
  %66 = getelementptr inbounds nuw i16, ptr %1, i64 %65
  %67 = load i16, ptr %66, align 2, !tbaa !21
  %68 = zext i16 %67 to i32
  %69 = add nuw nsw i32 %56, %68
  %70 = and i32 %69, 63
  %71 = zext nneg i32 %70 to i64
  %72 = getelementptr inbounds nuw i16, ptr %1, i64 %71
  %73 = load i16, ptr %72, align 2, !tbaa !21
  %74 = zext i16 %73 to i32
  %75 = add nuw nsw i32 %57, %74
  %76 = and i32 %75, 63
  %77 = zext nneg i32 %76 to i64
  %78 = getelementptr inbounds nuw i16, ptr %1, i64 %77
  %79 = load i16, ptr %78, align 2, !tbaa !21
  %80 = zext i16 %79 to i32
  %81 = add nuw nsw i32 %58, %80
  %82 = and i32 %81, 63
  %83 = zext nneg i32 %82 to i64
  %84 = getelementptr inbounds nuw i16, ptr %1, i64 %83
  %85 = load i16, ptr %84, align 2, !tbaa !21
  %86 = zext i16 %85 to i32
  %87 = add nuw nsw i32 %52, %86
  br label %.outer

88:                                               ; preds = %55
  %89 = shl nuw i32 %57, 16
  %90 = or disjoint i32 %89, %56
  store i32 %90, ptr %0, align 4, !tbaa !26
  %91 = shl i32 %52, 16
  %92 = or disjoint i32 %91, %58
  store i32 %92, ptr %5, align 4, !tbaa !26
  ret void
}